; Function Attrs: mustprogress nofree nounwind willreturn memory(write, argmem: none, inaccessiblemem: readwrite) uwtable
define noalias noundef ptr @If_LibBoxStart() local_unnamed_addr #0 {
  %1 = tail call noalias dereferenceable_or_null(16) ptr @calloc(i64 noundef 1, i64 noundef 16) #18
  %2 = tail call noalias dereferenceable_or_null(16) ptr @malloc(i64 noundef 16) #20
  %3 = getelementptr inbounds nuw i8, ptr %2, i64 4
  store i32 0, ptr %3, align 4, !tbaa !18
  store i32 100, ptr %2, align 8, !tbaa !20
  %4 = tail call noalias dereferenceable_or_null(800) ptr @malloc(i64 noundef 800) #20
  %5 = getelementptr inbounds nuw i8, ptr %2, i64 8
  store ptr %4, ptr %5, align 8, !tbaa !21
  %6 = getelementptr inbounds nuw i8, ptr %1, i64 8
  store ptr %2, ptr %6, align 8, !tbaa !22
  ret ptr %1
}